; Function Attrs: mustprogress uwtable
define void @_ZN5arrow7compute8internal13CommonNumericERKSt6vectorINS_10TypeHolderESaIS3_EE(ptr noalias writeonly sret(%"struct.arrow::TypeHolder") align 8 captures(none) %agg.result, ptr noundef nonnull readonly align 8 captures(none) dereferenceable(24) %types) local_unnamed_addr #0 {
entry:
  %0 = load ptr, ptr %types, align 8
  %_M_finish.i = getelementptr inbounds nuw i8, ptr %types, i64 8
  %1 = load ptr, ptr %_M_finish.i, align 8
  %sub.ptr.lhs.cast.i = ptrtoint ptr %1 to i64
  %sub.ptr.rhs.cast.i = ptrtoint ptr %0 to i64
  %sub.ptr.sub.i = sub i64 %sub.ptr.lhs.cast.i, %sub.ptr.rhs.cast.i
  %sub.ptr.div.i = sdiv exact i64 %sub.ptr.sub.i, 24
  tail call void @_ZN5arrow7compute8internal13CommonNumericEPKNS_10TypeHolderEm(ptr sret(%"struct.arrow::TypeHolder") align 8 %agg.result, ptr noundef %0, i64 noundef %sub.ptr.div.i)
  ret void
}